ARM GAS  C:\Users\zhuWenQ\AppData\Local\Temp\ccY9E0Ya.s 			page 1


   1              		.cpu cortex-m3
   2              		.eabi_attribute 20, 1
   3              		.eabi_attribute 21, 1
   4              		.eabi_attribute 23, 3
   5              		.eabi_attribute 24, 1
   6              		.eabi_attribute 25, 1
   7              		.eabi_attribute 26, 1
   8              		.eabi_attribute 30, 1
   9              		.eabi_attribute 34, 1
  10              		.eabi_attribute 18, 4
  11              		.file	"ws2812.c"
  12              		.text
  13              	.Ltext0:
  14              		.cfi_sections	.debug_frame
  15              		.section	.text.ws2812WriteLow,"ax",%progbits
  16              		.align	1
  17              		.global	ws2812WriteLow
  18              		.arch armv7-m
  19              		.syntax unified
  20              		.thumb
  21              		.thumb_func
  22              		.fpu softvfp
  24              	ws2812WriteLow:
  25              	.LFB65:
  26              		.file 1 "Core/Src/ws2812.c"
   1:Core/Src/ws2812.c **** #include "ws2812.h"
   2:Core/Src/ws2812.c **** 
   3:Core/Src/ws2812.c **** void ws2812WriteLow(void)
   4:Core/Src/ws2812.c **** {
  27              		.loc 1 4 1 view -0
  28              		.cfi_startproc
  29              		@ args = 0, pretend = 0, frame = 0
  30              		@ frame_needed = 0, uses_anonymous_args = 0
  31 0000 10B5     		push	{r4, lr}
  32              	.LCFI0:
  33              		.cfi_def_cfa_offset 8
  34              		.cfi_offset 4, -8
  35              		.cfi_offset 14, -4
   5:Core/Src/ws2812.c ****     HAL_GPIO_WritePin(RGB_GPIO_Port,RGB_Pin,1);
  36              		.loc 1 5 5 view .LVU1
  37 0002 084C     		ldr	r4, .L3
  38 0004 0122     		movs	r2, #1
  39 0006 4FF48051 		mov	r1, #4096
  40 000a 2046     		mov	r0, r4
  41 000c FFF7FEFF 		bl	HAL_GPIO_WritePin
  42              	.LVL0:
   6:Core/Src/ws2812.c ****     __NOP();
  43              		.loc 1 6 5 view .LVU2
  44              		.syntax unified
  45              	@ 6 "Core/Src/ws2812.c" 1
  46 0010 00BF     		nop
  47              	@ 0 "" 2
   7:Core/Src/ws2812.c ****     HAL_GPIO_WritePin(RGB_GPIO_Port,RGB_Pin,0);
  48              		.loc 1 7 5 view .LVU3
  49              		.thumb
  50              		.syntax unified
  51 0012 0022     		movs	r2, #0
ARM GAS  C:\Users\zhuWenQ\AppData\Local\Temp\ccY9E0Ya.s 			page 2


  52 0014 4FF48051 		mov	r1, #4096
  53 0018 2046     		mov	r0, r4
  54 001a FFF7FEFF 		bl	HAL_GPIO_WritePin
  55              	.LVL1:
   8:Core/Src/ws2812.c ****     __NOP();__NOP();
  56              		.loc 1 8 5 view .LVU4
  57              		.syntax unified
  58              	@ 8 "Core/Src/ws2812.c" 1
  59 001e 00BF     		nop
  60              	@ 0 "" 2
  61              		.loc 1 8 13 view .LVU5
  62              	@ 8 "Core/Src/ws2812.c" 1
  63 0020 00BF     		nop
  64              	@ 0 "" 2
   9:Core/Src/ws2812.c **** }
  65              		.loc 1 9 1 is_stmt 0 view .LVU6
  66              		.thumb
  67              		.syntax unified
  68 0022 10BD     		pop	{r4, pc}
  69              	.L4:
  70              		.align	2
  71              	.L3:
  72 0024 000C0140 		.word	1073810432
  73              		.cfi_endproc
  74              	.LFE65:
  76              		.section	.text.ws2812WriteHigh,"ax",%progbits
  77              		.align	1
  78              		.global	ws2812WriteHigh
  79              		.syntax unified
  80              		.thumb
  81              		.thumb_func
  82              		.fpu softvfp
  84              	ws2812WriteHigh:
  85              	.LFB66:
  10:Core/Src/ws2812.c **** 
  11:Core/Src/ws2812.c **** void ws2812WriteHigh(void)
  12:Core/Src/ws2812.c **** {
  86              		.loc 1 12 1 is_stmt 1 view -0
  87              		.cfi_startproc
  88              		@ args = 0, pretend = 0, frame = 0
  89              		@ frame_needed = 0, uses_anonymous_args = 0
  90 0000 10B5     		push	{r4, lr}
  91              	.LCFI1:
  92              		.cfi_def_cfa_offset 8
  93              		.cfi_offset 4, -8
  94              		.cfi_offset 14, -4
  13:Core/Src/ws2812.c ****     HAL_GPIO_WritePin(RGB_GPIO_Port,RGB_Pin,1);
  95              		.loc 1 13 5 view .LVU8
  96 0002 084C     		ldr	r4, .L7
  97 0004 0122     		movs	r2, #1
  98 0006 4FF48051 		mov	r1, #4096
  99 000a 2046     		mov	r0, r4
 100 000c FFF7FEFF 		bl	HAL_GPIO_WritePin
 101              	.LVL2:
  14:Core/Src/ws2812.c ****     __NOP();__NOP();
 102              		.loc 1 14 5 view .LVU9
 103              		.syntax unified
ARM GAS  C:\Users\zhuWenQ\AppData\Local\Temp\ccY9E0Ya.s 			page 3


 104              	@ 14 "Core/Src/ws2812.c" 1
 105 0010 00BF     		nop
 106              	@ 0 "" 2
 107              		.loc 1 14 13 view .LVU10
 108              	@ 14 "Core/Src/ws2812.c" 1
 109 0012 00BF     		nop
 110              	@ 0 "" 2
  15:Core/Src/ws2812.c ****     HAL_GPIO_WritePin(RGB_GPIO_Port,RGB_Pin,0);
 111              		.loc 1 15 5 view .LVU11
 112              		.thumb
 113              		.syntax unified
 114 0014 0022     		movs	r2, #0
 115 0016 4FF48051 		mov	r1, #4096
 116 001a 2046     		mov	r0, r4
 117 001c FFF7FEFF 		bl	HAL_GPIO_WritePin
 118              	.LVL3:
  16:Core/Src/ws2812.c **** 	__NOP();
 119              		.loc 1 16 2 view .LVU12
 120              		.syntax unified
 121              	@ 16 "Core/Src/ws2812.c" 1
 122 0020 00BF     		nop
 123              	@ 0 "" 2
  17:Core/Src/ws2812.c **** }
 124              		.loc 1 17 1 is_stmt 0 view .LVU13
 125              		.thumb
 126              		.syntax unified
 127 0022 10BD     		pop	{r4, pc}
 128              	.L8:
 129              		.align	2
 130              	.L7:
 131 0024 000C0140 		.word	1073810432
 132              		.cfi_endproc
 133              	.LFE66:
 135              		.section	.text.ws2812Reset,"ax",%progbits
 136              		.align	1
 137              		.global	ws2812Reset
 138              		.syntax unified
 139              		.thumb
 140              		.thumb_func
 141              		.fpu softvfp
 143              	ws2812Reset:
 144              	.LFB67:
  18:Core/Src/ws2812.c **** 
  19:Core/Src/ws2812.c **** void ws2812Reset(void)
  20:Core/Src/ws2812.c **** {
 145              		.loc 1 20 1 is_stmt 1 view -0
 146              		.cfi_startproc
 147              		@ args = 0, pretend = 0, frame = 0
 148              		@ frame_needed = 0, uses_anonymous_args = 0
 149 0000 08B5     		push	{r3, lr}
 150              	.LCFI2:
 151              		.cfi_def_cfa_offset 8
 152              		.cfi_offset 3, -8
 153              		.cfi_offset 14, -4
  21:Core/Src/ws2812.c ****     HAL_GPIO_WritePin(RGB_GPIO_Port,RGB_Pin,0);
 154              		.loc 1 21 5 view .LVU15
 155 0002 0022     		movs	r2, #0
ARM GAS  C:\Users\zhuWenQ\AppData\Local\Temp\ccY9E0Ya.s 			page 4


 156 0004 4FF48051 		mov	r1, #4096
 157 0008 0548     		ldr	r0, .L14
 158 000a FFF7FEFF 		bl	HAL_GPIO_WritePin
 159              	.LVL4:
  22:Core/Src/ws2812.c ****     uint16_t i = 25000;
 160              		.loc 1 22 5 view .LVU16
  23:Core/Src/ws2812.c ****     while (i--)
 161              		.loc 1 23 5 view .LVU17
  22:Core/Src/ws2812.c ****     uint16_t i = 25000;
 162              		.loc 1 22 14 is_stmt 0 view .LVU18
 163 000e 46F2A812 		movw	r2, #25000
 164              	.LVL5:
 165              	.L10:
 166              		.loc 1 23 11 is_stmt 1 view .LVU19
 167              		.loc 1 23 13 is_stmt 0 view .LVU20
 168 0012 531E     		subs	r3, r2, #1
 169 0014 9BB2     		uxth	r3, r3
 170              	.LVL6:
 171              		.loc 1 23 11 view .LVU21
 172 0016 12B1     		cbz	r2, .L13
  24:Core/Src/ws2812.c ****     {
  25:Core/Src/ws2812.c ****         __NOP();
 173              		.loc 1 25 9 is_stmt 1 view .LVU22
 174              		.syntax unified
 175              	@ 25 "Core/Src/ws2812.c" 1
 176 0018 00BF     		nop
 177              	@ 0 "" 2
  23:Core/Src/ws2812.c ****     while (i--)
 178              		.loc 1 23 13 is_stmt 0 view .LVU23
 179              		.thumb
 180              		.syntax unified
 181 001a 1A46     		mov	r2, r3
 182 001c F9E7     		b	.L10
 183              	.L13:
  26:Core/Src/ws2812.c ****     }
  27:Core/Src/ws2812.c ****     
  28:Core/Src/ws2812.c **** }
 184              		.loc 1 28 1 view .LVU24
 185 001e 08BD     		pop	{r3, pc}
 186              	.LVL7:
 187              	.L15:
 188              		.loc 1 28 1 view .LVU25
 189              		.align	2
 190              	.L14:
 191 0020 000C0140 		.word	1073810432
 192              		.cfi_endproc
 193              	.LFE67:
 195              		.section	.text.ws2812WriteByte,"ax",%progbits
 196              		.align	1
 197              		.global	ws2812WriteByte
 198              		.syntax unified
 199              		.thumb
 200              		.thumb_func
 201              		.fpu softvfp
 203              	ws2812WriteByte:
 204              	.LVL8:
 205              	.LFB68:
ARM GAS  C:\Users\zhuWenQ\AppData\Local\Temp\ccY9E0Ya.s 			page 5


  29:Core/Src/ws2812.c **** 
  30:Core/Src/ws2812.c **** void ws2812WriteByte(uint8_t byte)
  31:Core/Src/ws2812.c **** {
 206              		.loc 1 31 1 is_stmt 1 view -0
 207              		.cfi_startproc
 208              		@ args = 0, pretend = 0, frame = 0
 209              		@ frame_needed = 0, uses_anonymous_args = 0
 210              		.loc 1 31 1 is_stmt 0 view .LVU27
 211 0000 38B5     		push	{r3, r4, r5, lr}
 212              	.LCFI3:
 213              		.cfi_def_cfa_offset 16
 214              		.cfi_offset 3, -16
 215              		.cfi_offset 4, -12
 216              		.cfi_offset 5, -8
 217              		.cfi_offset 14, -4
 218 0002 0446     		mov	r4, r0
  32:Core/Src/ws2812.c ****     uint8_t i = 0;
 219              		.loc 1 32 5 is_stmt 1 view .LVU28
 220              	.LVL9:
  33:Core/Src/ws2812.c ****     for(;i<8;++i)
 221              		.loc 1 33 5 view .LVU29
  32:Core/Src/ws2812.c ****     uint8_t i = 0;
 222              		.loc 1 32 13 is_stmt 0 view .LVU30
 223 0004 0025     		movs	r5, #0
 224              		.loc 1 33 5 view .LVU31
 225 0006 05E0     		b	.L17
 226              	.LVL10:
 227              	.L23:
  34:Core/Src/ws2812.c ****     {
  35:Core/Src/ws2812.c ****         if(byte&0x80)
  36:Core/Src/ws2812.c ****             ws2812WriteHigh();
 228              		.loc 1 36 13 is_stmt 1 view .LVU32
 229 0008 FFF7FEFF 		bl	ws2812WriteHigh
 230              	.LVL11:
 231              	.L19:
  37:Core/Src/ws2812.c ****         else
  38:Core/Src/ws2812.c ****             ws2812WriteLow();
  39:Core/Src/ws2812.c ****         byte<<=1;
 232              		.loc 1 39 9 view .LVU33
 233              		.loc 1 39 13 is_stmt 0 view .LVU34
 234 000c 6400     		lsls	r4, r4, #1
 235              	.LVL12:
 236              		.loc 1 39 13 view .LVU35
 237 000e E4B2     		uxtb	r4, r4
 238              	.LVL13:
  33:Core/Src/ws2812.c ****     {
 239              		.loc 1 33 14 is_stmt 1 view .LVU36
 240 0010 0135     		adds	r5, r5, #1
 241              	.LVL14:
  33:Core/Src/ws2812.c ****     {
 242              		.loc 1 33 14 is_stmt 0 view .LVU37
 243 0012 EDB2     		uxtb	r5, r5
 244              	.LVL15:
 245              	.L17:
  33:Core/Src/ws2812.c ****     {
 246              		.loc 1 33 10 is_stmt 1 discriminator 1 view .LVU38
  33:Core/Src/ws2812.c ****     {
ARM GAS  C:\Users\zhuWenQ\AppData\Local\Temp\ccY9E0Ya.s 			page 6


 247              		.loc 1 33 5 is_stmt 0 discriminator 1 view .LVU39
 248 0014 072D     		cmp	r5, #7
 249 0016 05D8     		bhi	.L22
  35:Core/Src/ws2812.c ****             ws2812WriteHigh();
 250              		.loc 1 35 9 is_stmt 1 view .LVU40
  35:Core/Src/ws2812.c ****             ws2812WriteHigh();
 251              		.loc 1 35 11 is_stmt 0 view .LVU41
 252 0018 14F0800F 		tst	r4, #128
 253 001c F4D1     		bne	.L23
  38:Core/Src/ws2812.c ****         byte<<=1;
 254              		.loc 1 38 13 is_stmt 1 view .LVU42
 255 001e FFF7FEFF 		bl	ws2812WriteLow
 256              	.LVL16:
 257 0022 F3E7     		b	.L19
 258              	.L22:
  40:Core/Src/ws2812.c ****     }
  41:Core/Src/ws2812.c **** }
 259              		.loc 1 41 1 is_stmt 0 view .LVU43
 260 0024 38BD     		pop	{r3, r4, r5, pc}
 261              		.loc 1 41 1 view .LVU44
 262              		.cfi_endproc
 263              	.LFE68:
 265              		.section	.text.ws2812ShowColor,"ax",%progbits
 266              		.align	1
 267              		.global	ws2812ShowColor
 268              		.syntax unified
 269              		.thumb
 270              		.thumb_func
 271              		.fpu softvfp
 273              	ws2812ShowColor:
 274              	.LVL17:
 275              	.LFB69:
  42:Core/Src/ws2812.c **** 
  43:Core/Src/ws2812.c **** void ws2812ShowColor(uint8_t green,uint8_t red,uint8_t blue)
  44:Core/Src/ws2812.c **** {
 276              		.loc 1 44 1 is_stmt 1 view -0
 277              		.cfi_startproc
 278              		@ args = 0, pretend = 0, frame = 0
 279              		@ frame_needed = 0, uses_anonymous_args = 0
 280              		.loc 1 44 1 is_stmt 0 view .LVU46
 281 0000 38B5     		push	{r3, r4, r5, lr}
 282              	.LCFI4:
 283              		.cfi_def_cfa_offset 16
 284              		.cfi_offset 3, -16
 285              		.cfi_offset 4, -12
 286              		.cfi_offset 5, -8
 287              		.cfi_offset 14, -4
 288 0002 0D46     		mov	r5, r1
 289 0004 1446     		mov	r4, r2
  45:Core/Src/ws2812.c ****     ws2812WriteByte(green);
 290              		.loc 1 45 5 is_stmt 1 view .LVU47
 291 0006 FFF7FEFF 		bl	ws2812WriteByte
 292              	.LVL18:
  46:Core/Src/ws2812.c ****     ws2812WriteByte(red);
 293              		.loc 1 46 5 view .LVU48
 294 000a 2846     		mov	r0, r5
 295 000c FFF7FEFF 		bl	ws2812WriteByte
ARM GAS  C:\Users\zhuWenQ\AppData\Local\Temp\ccY9E0Ya.s 			page 7


 296              	.LVL19:
  47:Core/Src/ws2812.c ****     ws2812WriteByte(blue);
 297              		.loc 1 47 5 view .LVU49
 298 0010 2046     		mov	r0, r4
 299 0012 FFF7FEFF 		bl	ws2812WriteByte
 300              	.LVL20:
  48:Core/Src/ws2812.c **** }...
 301              		.loc 1 48 1 is_stmt 0 view .LVU50
 302 0016 38BD     		pop	{r3, r4, r5, pc}
 303              		.cfi_endproc
 304              	.LFE69:
 306              		.text
 307              	.Letext0:
 308              		.file 2 "e:\\9 2020-q2-update\\arm-none-eabi\\include\\machine\\_default_types.h"
 309              		.file 3 "e:\\9 2020-q2-update\\arm-none-eabi\\include\\sys\\_stdint.h"
 310              		.file 4 "Drivers/CMSIS/Include/core_cm3.h"
 311              		.file 5 "Drivers/CMSIS/Device/ST/STM32F1xx/Include/system_stm32f1xx.h"
 312              		.file 6 "Drivers/CMSIS/Device/ST/STM32F1xx/Include/stm32f103xb.h"
 313              		.file 7 "Drivers/STM32F1xx_HAL_Driver/Inc/stm32f1xx_hal.h"
 314              		.file 8 "Drivers/STM32F1xx_HAL_Driver/Inc/stm32f1xx_hal_gpio.h"
ARM GAS  C:\Users\zhuWenQ\AppData\Local\Temp\ccY9E0Ya.s 			page 8

